target datalayout = "e-m:e-p270:32:32-p271:32:32-p272:64:64-i64:64-i128:128-f80:128-n8:16:32:64-S128"
target triple = "x86_64-pc-linux-gnu"

%struct.DdManager = type { %struct.DdNode, ptr, ptr, ptr, ptr, ptr, ptr, ptr, i32, i32, double, double, double, i32, i32, i32, i32, i32, i32, ptr, ptr, %struct.DdSubtable, i32, i32, i32, i32, i32, i32, i32, double, i32, i32, i32, ptr, i64, double, i32, ptr, ptr, ptr, ptr, ptr, ptr, ptr, i32, ptr, ptr, ptr, ptr, ptr, ptr, i32, i32, i32, double, i32, i32, i32, i32, double, double, i32, i32, i32, i32, i32, i32, i32, i32, i32, ptr, ptr, i32, i32, i32, i32, i32, i32, ptr, ptr, ptr, ptr, ptr, ptr, ptr, ptr, i32, i64, i64, i64, i32, i64, i64, double, double, double, double, double, double, i32, ptr, ptr, i64 }
%struct.DdNode = type { i32, i32, ptr, %union.anon, i64 }
%union.anon = type { %struct.DdChildren }
%struct.DdChildren = type { ptr, ptr }
%struct.DdSubtable = type { ptr, i32, i32, i32, i32, i32, i32, i32, i32, i32, i32, i32 }
%struct.DdCache = type { ptr, ptr, i64, ptr, i32 }

@.str = private unnamed_addr constant [45 x i8] c"Cache used slots = %.2f%% (expected %.2f%%)\0A\00", align 1

; Function Attrs: nounwind uwtable
define i32 @cuddCacheProfile(ptr noundef %0, ptr noundef %1) #0 {
  %3 = alloca i32, align 4
  %4 = alloca ptr, align 8
  %5 = alloca ptr, align 8
  %6 = alloca ptr, align 8
  %7 = alloca i32, align 4
  %8 = alloca i32, align 4
  %9 = alloca i32, align 4
  %10 = alloca i32, align 4
  %11 = alloca double, align 8
  %12 = alloca i32, align 4
  store ptr %0, ptr %4, align 8, !tbaa !3
  store ptr %1, ptr %5, align 8, !tbaa !63
  call void @llvm.lifetime.start.p0(i64 8, ptr %6) #6
  %13 = load ptr, ptr %4, align 8, !tbaa !3
  %14 = getelementptr inbounds nuw %struct.DdManager, ptr %13, i32 0, i32 7
  %15 = load ptr, ptr %14, align 8, !tbaa !31
  store ptr %15, ptr %6, align 8, !tbaa !54
  call void @llvm.lifetime.start.p0(i64 4, ptr %7) #6
  %16 = load ptr, ptr %4, align 8, !tbaa !3
  %17 = getelementptr inbounds nuw %struct.DdManager, ptr %16, i32 0, i32 8
  %18 = load i32, ptr %17, align 8, !tbaa !33
  store i32 %18, ptr %7, align 4, !tbaa !8
  call void @llvm.lifetime.start.p0(i64 4, ptr %8) #6
  store i32 0, ptr %8, align 4, !tbaa !8
  call void @llvm.lifetime.start.p0(i64 4, ptr %9) #6
  call void @llvm.lifetime.start.p0(i64 4, ptr %10) #6
  call void @llvm.lifetime.start.p0(i64 8, ptr %11) #6
  store i32 0, ptr %9, align 4, !tbaa !8
  br label %19

19:                                               ; preds = %34, %2
  %20 = load i32, ptr %9, align 4, !tbaa !8
  %21 = load i32, ptr %7, align 4, !tbaa !8
  %22 = icmp slt i32 %20, %21
  br i1 %22, label %23, label %37

23:                                               ; preds = %19
  %24 = load ptr, ptr %6, align 8, !tbaa !54
  %25 = load i32, ptr %9, align 4, !tbaa !8
  %26 = sext i32 %25 to i64
  %27 = getelementptr inbounds %struct.DdCache, ptr %24, i64 %26
  %28 = getelementptr inbounds nuw %struct.DdCache, ptr %27, i32 0, i32 2
  %29 = load i64, ptr %28, align 8, !tbaa !46
  %30 = icmp eq i64 %29, 0
  %31 = zext i1 %30 to i32
  %32 = load i32, ptr %8, align 4, !tbaa !8
  %33 = add nsw i32 %32, %31
  store i32 %33, ptr %8, align 4, !tbaa !8
  br label %34

34:                                               ; preds = %23
  %35 = load i32, ptr %9, align 4, !tbaa !8
  %36 = add nsw i32 %35, 1
  store i32 %36, ptr %9, align 4, !tbaa !8
  br label %19, !llvm.loop !64

37:                                               ; preds = %19
  %38 = load ptr, ptr %4, align 8, !tbaa !3
  %39 = getelementptr inbounds nuw %struct.DdManager, ptr %38, i32 0, i32 96
  %40 = load double, ptr %39, align 8, !tbaa !43
  %41 = load ptr, ptr %4, align 8, !tbaa !3
  %42 = getelementptr inbounds nuw %struct.DdManager, ptr %41, i32 0, i32 97
  %43 = load double, ptr %42, align 8, !tbaa !44
  %44 = fsub double %40, %43
  %45 = fneg double %44
  %46 = load i32, ptr %7, align 4, !tbaa !8
  %47 = sitofp i32 %46 to double
  %48 = fdiv double %45, %47
  %49 = call double @exp(double noundef %48) #6, !tbaa !8
  %50 = fsub double 1.000000e+00, %49
  %51 = fmul double 1.000000e+02, %50
  store double %51, ptr %11, align 8, !tbaa !62
  %52 = load ptr, ptr %5, align 8, !tbaa !63
  %53 = load i32, ptr %8, align 4, !tbaa !8
  %54 = sitofp i32 %53 to double
  %55 = fmul double %54, 1.000000e+02
  %56 = load i32, ptr %7, align 4, !tbaa !8
  %57 = sitofp i32 %56 to double
  %58 = fdiv double %55, %57
  %59 = fsub double 1.000000e+02, %58
  %60 = load double, ptr %11, align 8, !tbaa !62
  %61 = call i32 (ptr, ptr, ...) @fprintf(ptr noundef %52, ptr noundef @.str, double noundef %59, double noundef %60) #6
  store i32 %61, ptr %10, align 4, !tbaa !8
  %62 = load i32, ptr %10, align 4, !tbaa !8
  %63 = icmp eq i32 %62, -1
  br i1 %63, label %64, label %65

64:                                               ; preds = %37
  store i32 0, ptr %3, align 4
  store i32 1, ptr %12, align 4
  br label %66

65:                                               ; preds = %37
  store i32 1, ptr %3, align 4
  store i32 1, ptr %12, align 4
  br label %66

66:                                               ; preds = %65, %64
  call void @llvm.lifetime.end.p0(i64 8, ptr %11) #6
  call void @llvm.lifetime.end.p0(i64 4, ptr %10) #6
  call void @llvm.lifetime.end.p0(i64 4, ptr %9) #6
  call void @llvm.lifetime.end.p0(i64 4, ptr %8) #6
  call void @llvm.lifetime.end.p0(i64 4, ptr %7) #6
  call void @llvm.lifetime.end.p0(i64 8, ptr %6) #6
  %67 = load i32, ptr %3, align 4
  ret i32 %67
}