; Function Attrs: nofree nounwind uwtable
define range(i32 0, 2) i32 @cuddCacheProfile(ptr noundef readonly captures(none) %0, ptr noundef captures(none) %1) local_unnamed_addr #6 {
  %3 = getelementptr inbounds nuw i8, ptr %0, i64 88
  %4 = load ptr, ptr %3, align 8, !tbaa !28
  %5 = getelementptr inbounds nuw i8, ptr %0, i64 96
  %6 = load i32, ptr %5, align 8, !tbaa !30
  %7 = icmp sgt i32 %6, 0
  br i1 %7, label %.lr.ph.preheader, label %._crit_edge

.lr.ph.preheader:                                 ; preds = %2
  %wide.trip.count = zext nneg i32 %6 to i64
  br label %.lr.ph

.lr.ph:                                           ; preds = %.lr.ph.preheader, %.lr.ph
  %indvars.iv = phi i64 [ 0, %.lr.ph.preheader ], [ %indvars.iv.next, %.lr.ph ]
  %.01620 = phi i32 [ 0, %.lr.ph.preheader ], [ %12, %.lr.ph ]
  %8 = getelementptr inbounds nuw %struct.DdCache, ptr %4, i64 %indvars.iv, i32 2
  %9 = load i64, ptr %8, align 8, !tbaa !47
  %10 = icmp eq i64 %9, 0
  %11 = zext i1 %10 to i32
  %12 = add nuw nsw i32 %.01620, %11
  %indvars.iv.next = add nuw nsw i64 %indvars.iv, 1
  %exitcond.not = icmp eq i64 %indvars.iv.next, %wide.trip.count
  br i1 %exitcond.not, label %._crit_edge.loopexit, label %.lr.ph, !llvm.loop !54

._crit_edge.loopexit:                             ; preds = %.lr.ph
  %13 = uitofp nneg i32 %12 to double
  %14 = fmul double %13, 1.000000e+02
  br label %._crit_edge

._crit_edge:                                      ; preds = %._crit_edge.loopexit, %2
  %.016.lcssa = phi double [ 0.000000e+00, %2 ], [ %14, %._crit_edge.loopexit ]
  %15 = getelementptr inbounds nuw i8, ptr %0, i64 704
  %16 = load double, ptr %15, align 8, !tbaa !44
  %17 = getelementptr inbounds nuw i8, ptr %0, i64 712
  %18 = load double, ptr %17, align 8, !tbaa !53
  %19 = fsub double %16, %18
  %20 = fneg double %19
  %21 = sitofp i32 %6 to double
  %22 = fdiv double %20, %21
  %23 = tail call double @exp(double noundef %22) #14, !tbaa !55
  %24 = fsub double 1.000000e+00, %23
  %25 = fmul double %24, 1.000000e+02
  %26 = fdiv double %.016.lcssa, %21
  %27 = fsub double 1.000000e+02, %26
  %28 = tail call i32 (ptr, ptr, ...) @fprintf(ptr noundef %1, ptr noundef nonnull @.str, double noundef %27, double noundef %25) #14
  %29 = icmp ne i32 %28, -1
  %. = zext i1 %29 to i32
  ret i32 %.
}